; Function Attrs: nounwind uwtable
define i32 @hwloc_get_proc_cpubind(ptr noundef %0, i32 noundef %1, ptr noundef %2, i32 noundef %3) local_unnamed_addr #0 {
  %.not = icmp ult i32 %3, 16
  br i1 %.not, label %7, label %5

5:                                                ; preds = %4
  %6 = tail call ptr @__errno_location() #12
  store i32 22, ptr %6, align 4, !tbaa !3
  br label %14

7:                                                ; preds = %4
  %8 = getelementptr inbounds nuw i8, ptr %0, i64 504
  %9 = load ptr, ptr %8, align 8, !tbaa !36
  %.not8 = icmp eq ptr %9, null
  br i1 %.not8, label %12, label %10

10:                                               ; preds = %7
  %11 = tail call i32 %9(ptr noundef nonnull %0, i32 noundef %1, ptr noundef %2, i32 noundef %3) #14
  br label %14

12:                                               ; preds = %7
  %13 = tail call ptr @__errno_location() #12
  store i32 38, ptr %13, align 4, !tbaa !3
  br label %14

14:                                               ; preds = %12, %10, %5
  %.0 = phi i32 [ -1, %5 ], [ %11, %10 ], [ -1, %12 ]
  ret i32 %.0
}